; generated by Component: ARM Compiler 5.05 update 2 (build 169) Tool: ArmCC [4d0f38]
; commandline ArmCC [--list --split_sections --debug -c --asm --interleave -o.\stm32373c_eval\mass_mal.o --asm_dir=.\STM32373C_EVAL\ --list_dir=.\STM32373C_EVAL\ --depend=.\stm32373c_eval\mass_mal.d --cpu=Cortex-M4.fp --apcs=interwork -O3 --diag_suppress=9931 -I..\inc -I..\..\..\Libraries\CMSIS\Device\ST\\STM32F37x\Include -I..\..\..\Libraries\STM32_USB-FS-Device_Driver\inc -I..\..\..\Libraries\STM32F37x_StdPeriph_Driver\inc -I..\..\..\Utilities\STM32_EVAL -I..\..\..\Utilities\STM32_EVAL\Common -I..\..\..\Utilities\STM32_EVAL\STM32373C_EVAL -IE:\STM32F373_USB_BootLoader\Projects\Mass_Storage_RAM\MDK-ARM\RTE -ID:\MDK\install\ARM\PACK\ARM\CMSIS\4.3.0\CMSIS\Include -ID:\MDK\install\ARM\PACK\Keil\STM32F3xx_DFP\1.2.0\Device\Include -D__MICROLIB -D__UVISION_VERSION=515 -D_RTE_ -DSTM32F37X -DUSE_STDPERIPH_DRIVER -DSTM32F37X -DUSE_STM32373C_EVAL --omf_browse=.\stm32373c_eval\mass_mal.crf ..\src\mass_mal.c]
                          THUMB

                          AREA ||i.MAL_GetStatus||, CODE, READONLY, ALIGN=1

                  MAL_GetStatus PROC
;;;211    *******************************************************************************/
;;;212    uint16_t MAL_GetStatus (uint8_t lun)
000000  2800              CMP      r0,#0
;;;213    {
000002  d000              BEQ      |L1.6|
;;;214    	if (lun == 0)
;;;215    	{
;;;216    		return MAL_OK;
;;;217    	}
;;;218    	return MAL_FAIL;
000004  2001              MOVS     r0,#1
                  |L1.6|
;;;219    }
000006  4770              BX       lr
;;;220    
                          ENDP


                          AREA ||i.MAL_Init||, CODE, READONLY, ALIGN=2

                  MAL_Init PROC
;;;35     *******************************************************************************/
;;;36     uint16_t MAL_Init(uint8_t lun)
000000  b570              PUSH     {r4-r6,lr}
;;;37     {
000002  b108              CBZ      r0,|L2.8|
;;;38     	uint16_t Index = 0, EraseCounter;
;;;39     	uint32_t Data = 0, Address = 0;
;;;40     
;;;41     	if(lun == 0)
;;;42     	{
;;;43     		Mass_Block_Count[0] = 493;//242K + 9sectors;
;;;44     		Mass_Block_Size[0] = SECTOR_SIZE;
;;;45     		Mass_Memory_Size[0] = 252416;//242*1024+9*512;
;;;46     
;;;47     /* write file data to flash memory */
;;;48     		FLASH_Unlock();
;;;49     		/* Clear pending flags (if any) */  
;;;50     		FLASH_ClearFlag(FLASH_FLAG_EOP | FLASH_FLAG_PGERR | FLASH_FLAG_WRPERR);
;;;51     		
;;;52     		for(EraseCounter = 0; EraseCounter < 1; EraseCounter ++)//2K = 1 Pages = 4 sectors for readme.txt
;;;53     		{
;;;54     			FLASH_ErasePage(FAT_TABLE_ADDR + (FLASH_PAGE_SIZE * EraseCounter));
;;;55     		}
;;;56     		while(FLASH_GetFlagStatus(FLASH_FLAG_BSY) == SET){}
;;;57     /* file data area */
;;;58     		Address = FAT_TABLE_ADDR + FileData_Offset;
;;;59     		for(Index = 0; Index < sizeof(FileData); Index += 4)//write file data
;;;60     		{
;;;61     			Data = FileData[Index + 3]; Data <<= 8;
;;;62     			Data |= FileData[Index + 2]; Data <<= 8;
;;;63     			Data |= FileData[Index + 1]; Data <<= 8;
;;;64     			Data |= FileData[Index];
;;;65     
;;;66     			FLASH_ProgramWord((Address + Index), Data);
;;;67     			while(FLASH_GetFlagStatus(FLASH_FLAG_BSY) == SET){}
;;;68     		}
;;;69     		Data = 0; Address = FAT_TABLE_ADDR + FileData_Offset + FileData_Size;
;;;70     		for(Index = 0; Index < SECTOR_SIZE - FileData_Size % SECTOR_SIZE; Index += 4)//flush end of sector
;;;71     		{
;;;72     			FLASH_ProgramWord((Address + Index), Data);
;;;73     			while(FLASH_GetFlagStatus(FLASH_FLAG_BSY) == SET){}
;;;74     		}
;;;75     		FLASH_Lock();
;;;76     
;;;77     		return MAL_OK;
;;;78     	}
;;;79     	return MAL_FAIL;
000004  2001              MOVS     r0,#1
;;;80     }
000006  bd70              POP      {r4-r6,pc}
                  |L2.8|
000008  4926              LDR      r1,|L2.164|
00000a  f24010ed          MOV      r0,#0x1ed             ;43
00000e  6008              STR      r0,[r1,#0]            ;44  ; Mass_Block_Count
000010  1f09              SUBS     r1,r1,#4              ;44
000012  f44f7000          MOV      r0,#0x200             ;44
000016  6008              STR      r0,[r1,#0]            ;45  ; Mass_Block_Size
000018  1f09              SUBS     r1,r1,#4              ;45
00001a  4823              LDR      r0,|L2.168|
00001c  6008              STR      r0,[r1,#0]            ;48  ; Mass_Memory_Size
00001e  f7fffffe          BL       FLASH_Unlock
000022  2034              MOVS     r0,#0x34              ;50
000024  f7fffffe          BL       FLASH_ClearFlag
000028  4d20              LDR      r5,|L2.172|
00002a  2400              MOVS     r4,#0                 ;52
                  |L2.44|
00002c  eb0520c4          ADD      r0,r5,r4,LSL #11      ;54
000030  f7fffffe          BL       FLASH_ErasePage
000034  1c64              ADDS     r4,r4,#1              ;54
000036  0424              LSLS     r4,r4,#16             ;52
000038  0c24              LSRS     r4,r4,#16             ;52
00003a  d0f7              BEQ      |L2.44|
                  |L2.60|
00003c  2001              MOVS     r0,#1                 ;56
00003e  f7fffffe          BL       FLASH_GetFlagStatus
000042  2801              CMP      r0,#1                 ;56
000044  d0fa              BEQ      |L2.60|
000046  4e1a              LDR      r6,|L2.176|
000048  2400              MOVS     r4,#0                 ;59
                  |L2.74|
00004a  1930              ADDS     r0,r6,r4              ;61
00004c  78c1              LDRB     r1,[r0,#3]            ;61
00004e  020a              LSLS     r2,r1,#8              ;61
000050  7881              LDRB     r1,[r0,#2]            ;62
000052  7840              LDRB     r0,[r0,#1]            ;63
000054  4311              ORRS     r1,r1,r2              ;62
000056  ea402001          ORR      r0,r0,r1,LSL #8       ;63
00005a  5d31              LDRB     r1,[r6,r4]            ;64
00005c  ea412100          ORR      r1,r1,r0,LSL #8       ;64
000060  1928              ADDS     r0,r5,r4              ;66
000062  f7fffffe          BL       FLASH_ProgramWord
                  |L2.102|
000066  2001              MOVS     r0,#1                 ;67
000068  f7fffffe          BL       FLASH_GetFlagStatus
00006c  2801              CMP      r0,#1                 ;67
00006e  d0fa              BEQ      |L2.102|
000070  1d24              ADDS     r4,r4,#4              ;67
000072  b2a4              UXTH     r4,r4                 ;59
000074  f2405014          MOV      r0,#0x514             ;59
000078  4284              CMP      r4,r0                 ;59
00007a  d3e6              BCC      |L2.74|
00007c  2600              MOVS     r6,#0                 ;69
00007e  4d0d              LDR      r5,|L2.180|
000080  4634              MOV      r4,r6                 ;70
                  |L2.130|
000082  1928              ADDS     r0,r5,r4              ;72
000084  4631              MOV      r1,r6                 ;72
000086  f7fffffe          BL       FLASH_ProgramWord
                  |L2.138|
00008a  2001              MOVS     r0,#1                 ;73
00008c  f7fffffe          BL       FLASH_GetFlagStatus
000090  2801              CMP      r0,#1                 ;73
000092  d0fa              BEQ      |L2.138|
000094  1d24              ADDS     r4,r4,#4              ;73
000096  b2a4              UXTH     r4,r4                 ;70
000098  2cec              CMP      r4,#0xec              ;70
00009a  d3f2              BCC      |L2.130|
00009c  f7fffffe          BL       FLASH_Lock
0000a0  2000              MOVS     r0,#0                 ;77
0000a2  bd70              POP      {r4-r6,pc}
;;;81     
                          ENDP

                  |L2.164|
                          DCD      ||.data||+0x8
                  |L2.168|
                          DCD      0x0003da00
                  |L2.172|
                          DCD      0x08003800
                  |L2.176|
                          DCD      ||.data||+0xa4a
                  |L2.180|
                          DCD      0x08003d14

                          AREA ||i.MAL_Read||, CODE, READONLY, ALIGN=2

                  MAL_Read PROC
;;;161    *******************************************************************************/
;;;162    uint16_t MAL_Read(uint8_t lun, uint32_t Memory_Offset, uint32_t *Readbuff, uint16_t Transfer_Length)
000000  b5f0              PUSH     {r4-r7,lr}
;;;163    {
;;;164    	uint16_t Index = 0;
000002  2400              MOVS     r4,#0
000004  b108              CBZ      r0,|L3.10|
;;;165    	uint16_t Address = 0;
;;;166    	uint8_t *pBuf = (uint8_t *)Readbuff;
;;;167    	if(lun == 0)
;;;168    	{
;;;169    		if(Memory_Offset < FAT_USED_SIZE)
;;;170    		{
;;;171    			Address = Memory_Offset;
;;;172    			for(Index = 0; Index < Transfer_Length; Index ++)
;;;173    			{
;;;174    				if(Address < BOOT_TABLE_USED_SIZE + BOOT_TABLE_OFFSET)
;;;175    					pBuf[Index] = BOOT_TABLE[Address];
;;;176    				else if(Address < BOOT_TABLE_SIZE + BOOT_TABLE_OFFSET - 2)
;;;177    					pBuf[Index] = 0;
;;;178    				else if(Address == BOOT_TABLE_SIZE + BOOT_TABLE_OFFSET - 2)
;;;179    					pBuf[Index] = 0x55;
;;;180    				else if(Address == BOOT_TABLE_SIZE + BOOT_TABLE_OFFSET - 1)
;;;181    					pBuf[Index] = 0xAA;
;;;182    				else if(Address < FAT_TABLE_SIZE + FAT1_TABLE_OFFSET)
;;;183    					pBuf[Index] = FATn_TABLE[Address - FAT1_TABLE_OFFSET];
;;;184    				else if(Address < FAT_TABLE_SIZE + FAT2_TABLE_OFFSET)
;;;185    					pBuf[Index] = FATn_TABLE[Address - FAT2_TABLE_OFFSET];
;;;186    				else if(Address < ROOT_TABLE_SIZE + ROOT_TABLE_OFFSET)
;;;187    					pBuf[Index] = ROOT_TABLE[Address - ROOT_TABLE_OFFSET];
;;;188    				
;;;189    				Address ++;
;;;190    			}
;;;191    		}
;;;192    		else
;;;193    		{
;;;194    			Memory_Offset -= FAT_USED_SIZE;
;;;195    			for(Index = 0; Index < Transfer_Length; Index += 4)
;;;196    			{
;;;197    				Readbuff[Index>>2] = *((uint32_t *)(FAT_TABLE_ADDR + Memory_Offset + Index));
;;;198    			}
;;;199    		}
;;;200    		return MAL_OK;
;;;201    	}
;;;202    	return MAL_FAIL;
000006  2001              MOVS     r0,#1
;;;203    }
000008  bdf0              POP      {r4-r7,pc}
                  |L3.10|
00000a  f44f5590          MOV      r5,#0x1200            ;169
00000e  42a9              CMP      r1,r5                 ;169
000010  d23a              BCS      |L3.136|
000012  b288              UXTH     r0,r1                 ;171
000014  f44f76ff          MOV      r6,#0x1fe             ;176
000018  4924              LDR      r1,|L3.172|
00001a  e032              B        |L3.130|
                  |L3.28|
00001c  283e              CMP      r0,#0x3e              ;174
00001e  d203              BCS      |L3.40|
000020  4f22              LDR      r7,|L3.172|
000022  3f3e              SUBS     r7,r7,#0x3e           ;175
000024  5c3f              LDRB     r7,[r7,r0]            ;175
000026  e027              B        |L3.120|
                  |L3.40|
000028  42b0              CMP      r0,r6                 ;176
00002a  d201              BCS      |L3.48|
00002c  2700              MOVS     r7,#0                 ;177
00002e  e023              B        |L3.120|
                  |L3.48|
000030  42b0              CMP      r0,r6                 ;178
000032  d101              BNE      |L3.56|
000034  2755              MOVS     r7,#0x55              ;179
000036  e01f              B        |L3.120|
                  |L3.56|
000038  f5a07780          SUB      r7,r0,#0x100          ;180
00003c  3fff              SUBS     r7,r7,#0xff           ;180
00003e  d008              BEQ      |L3.82|
000040  f5b06f00          CMP      r0,#0x800             ;182
000044  d207              BCS      |L3.86|
000046  180f              ADDS     r7,r1,r0              ;183
000048  f5a75780          SUB      r7,r7,#0x1000         ;183
00004c  f8977e00          LDRB     r7,[r7,#0xe00]        ;183
000050  e012              B        |L3.120|
                  |L3.82|
000052  27aa              MOVS     r7,#0xaa              ;181
000054  e010              B        |L3.120|
                  |L3.86|
000056  f5b06f60          CMP      r0,#0xe00             ;184
00005a  d205              BCS      |L3.104|
00005c  180f              ADDS     r7,r1,r0              ;185
00005e  f5a75780          SUB      r7,r7,#0x1000         ;185
000062  f8977800          LDRB     r7,[r7,#0x800]        ;185
000066  e007              B        |L3.120|
                  |L3.104|
000068  42a8              CMP      r0,r5                 ;186
00006a  d206              BCS      |L3.122|
00006c  4f10              LDR      r7,|L3.176|
00006e  4407              ADD      r7,r7,r0              ;187
000070  f5a75780          SUB      r7,r7,#0x1000         ;187
000074  f8977200          LDRB     r7,[r7,#0x200]        ;187
                  |L3.120|
000078  5517              STRB     r7,[r2,r4]            ;187
                  |L3.122|
00007a  1c40              ADDS     r0,r0,#1              ;187
00007c  1c64              ADDS     r4,r4,#1              ;189
00007e  b280              UXTH     r0,r0                 ;189
000080  b2a4              UXTH     r4,r4                 ;172
                  |L3.130|
000082  429c              CMP      r4,r3                 ;172
000084  d3ca              BCC      |L3.28|
000086  e00e              B        |L3.166|
                  |L3.136|
000088  480a              LDR      r0,|L3.180|
00008a  f5a15190          SUB      r1,r1,#0x1200         ;197
00008e  e008              B        |L3.162|
                  |L3.144|
000090  190d              ADDS     r5,r1,r4              ;197
000092  4405              ADD      r5,r5,r0              ;197
000094  f0240603          BIC      r6,r4,#3              ;197
000098  f8d55800          LDR      r5,[r5,#0x800]        ;197
00009c  1d24              ADDS     r4,r4,#4              ;197
00009e  5195              STR      r5,[r2,r6]            ;197
0000a0  b2a4              UXTH     r4,r4                 ;195
                  |L3.162|
0000a2  429c              CMP      r4,r3                 ;195
0000a4  d3f4              BCC      |L3.144|
                  |L3.166|
0000a6  2000              MOVS     r0,#0                 ;200
0000a8  bdf0              POP      {r4-r7,pc}
;;;204    
                          ENDP

0000aa  0000              DCW      0x0000
                  |L3.172|
                          DCD      ||.data||+0x4a
                  |L3.176|
                          DCD      ||.data||+0x64a
                  |L3.180|
                          DCD      0x08003000

                          AREA ||i.MAL_Write||, CODE, READONLY, ALIGN=2

                  MAL_Write PROC
;;;88     *******************************************************************************/
;;;89     uint16_t MAL_Write(uint8_t lun, uint32_t Memory_Offset, uint32_t *Writebuff, uint16_t Transfer_Length)
000000  e92d5ff0          PUSH     {r4-r12,lr}
;;;90     {
000004  4692              MOV      r10,r2
000006  461f              MOV      r7,r3
;;;91     	uint16_t Index = 0;
000008  2200              MOVS     r2,#0
;;;92     	uint32_t Address = 0;
;;;93     	uint32_t Pages = 0;
;;;94     	uint8_t *pBuf = (uint8_t *)Writebuff;
00000a  4653              MOV      r3,r10
;;;95     	if(lun == 0)
00000c  2800              CMP      r0,#0
00000e  d17d              BNE      |L4.268|
;;;96     	{
;;;97     		if(Memory_Offset > 0)//½ûÖ¹¸ñÊ½»¯
000010  2900              CMP      r1,#0
000012  d07b              BEQ      |L4.268|
;;;98     		{
;;;99     			if(Memory_Offset < FAT_USED_SIZE)
000014  f44f5c90          MOV      r12,#0x1200
;;;100    			{
;;;101    				Address = Memory_Offset;
;;;102    				for(Index = 0; Index < Transfer_Length; Index ++)
;;;103    				{
;;;104    					if(Address < BOOT_TABLE_USED_SIZE + BOOT_TABLE_OFFSET)
;;;105    						BOOT_TABLE[Address] = pBuf[Index];
;;;106    					else if(Address < BOOT_TABLE_SIZE + BOOT_TABLE_OFFSET)
;;;107    						{}
;;;108    					else if(Address < FAT_TABLE_SIZE + FAT1_TABLE_OFFSET)
000018  f44f6600          MOV      r6,#0x800
00001c  4561              CMP      r1,r12                ;99
00001e  d238              BCS      |L4.146|
;;;109    						FATn_TABLE[Address - FAT1_TABLE_OFFSET] = pBuf[Index];
000020  4844              LDR      r0,|L4.308|
000022  10b5              ASRS     r5,r6,#2              ;106
000024  f1a0043e          SUB      r4,r0,#0x3e           ;105
;;;110    					else if(Address < FAT_TABLE_SIZE + FAT2_TABLE_OFFSET)
000028  f44f6960          MOV      r9,#0xe00
00002c  46e3              MOV      r11,r12               ;99
;;;111    						FATn_TABLE[Address - FAT2_TABLE_OFFSET] = pBuf[Index];
;;;112    					else if(Address < ROOT_TABLE_SIZE + ROOT_TABLE_OFFSET)
;;;113    						ROOT_TABLE[Address - ROOT_TABLE_OFFSET] = pBuf[Index];
00002e  f5006ac0          ADD      r10,r0,#0x600
000032  e02b              B        |L4.140|
                  |L4.52|
000034  293e              CMP      r1,#0x3e              ;104
000036  d204              BCS      |L4.66|
000038  f813c002          LDRB     r12,[r3,r2]           ;105
00003c  f804c001          STRB     r12,[r4,r1]           ;105
000040  e021              B        |L4.134|
                  |L4.66|
000042  42a9              CMP      r1,r5                 ;106
000044  d31f              BCC      |L4.134|
000046  42b1              CMP      r1,r6                 ;108
000048  d208              BCS      |L4.92|
00004a  eb000801          ADD      r8,r0,r1              ;109
00004e  f5a85880          SUB      r8,r8,#0x1000         ;109
000052  f813c002          LDRB     r12,[r3,r2]           ;109
000056  f888ce00          STRB     r12,[r8,#0xe00]       ;109
00005a  e014              B        |L4.134|
                  |L4.92|
00005c  4549              CMP      r1,r9                 ;110
00005e  d208              BCS      |L4.114|
000060  eb000801          ADD      r8,r0,r1              ;111
000064  f5a85880          SUB      r8,r8,#0x1000         ;111
000068  f813c002          LDRB     r12,[r3,r2]           ;111
00006c  f888c800          STRB     r12,[r8,#0x800]       ;111
000070  e009              B        |L4.134|
                  |L4.114|
000072  4559              CMP      r1,r11                ;112
000074  d207              BCS      |L4.134|
000076  eb0a0c01          ADD      r12,r10,r1
00007a  f5ac5c80          SUB      r12,r12,#0x1000
00007e  f8138002          LDRB     r8,[r3,r2]
000082  f88c8200          STRB     r8,[r12,#0x200]
                  |L4.134|
000086  1c52              ADDS     r2,r2,#1
000088  b292              UXTH     r2,r2                 ;102
00008a  1c49              ADDS     r1,r1,#1              ;102
                  |L4.140|
00008c  42ba              CMP      r2,r7                 ;102
00008e  d3d1              BCC      |L4.52|
000090  e04b              B        |L4.298|
                  |L4.146|
;;;114    					Address ++;
;;;115    				}
;;;116    			}
;;;117    			else
;;;118    			{
;;;119    				//compute address.
;;;120    				Memory_Offset -= FAT_USED_SIZE;
000092  f5a15490          SUB      r4,r1,#0x1200
;;;121    				Pages = ((Memory_Offset >> 11) << 11);
000096  ea4f29d4          LSR      r9,r4,#11
;;;122    
;;;123    				Address = FAT_TABLE_ADDR + Pages;
00009a  4927              LDR      r1,|L4.312|
00009c  ea4f29c9          LSL      r9,r9,#11             ;121
;;;124    				for(Index = 0; Index < FLASH_PAGE_SIZE; Index += 4)//Copy all page Data from flash memory.
;;;125    				{
;;;126    					Page[Index >> 2] = *(__IO uint32_t *)(Address + Index);
0000a0  4d26              LDR      r5,|L4.316|
0000a2  eb090801          ADD      r8,r9,r1              ;123
0000a6  bf00              NOP      
                  |L4.168|
0000a8  f8580002          LDR      r0,[r8,r2]
0000ac  f0220103          BIC      r1,r2,#3
0000b0  1d12              ADDS     r2,r2,#4
0000b2  b292              UXTH     r2,r2                 ;124
0000b4  5068              STR      r0,[r5,r1]
0000b6  42b2              CMP      r2,r6                 ;124
0000b8  d3f6              BCC      |L4.168|
;;;127    				}
;;;128    				FLASH_Unlock();
0000ba  f7fffffe          BL       FLASH_Unlock
                  |L4.190|
;;;129    				while(FLASH_GetFlagStatus(FLASH_FLAG_BSY)==SET){}
0000be  2001              MOVS     r0,#1
0000c0  f7fffffe          BL       FLASH_GetFlagStatus
0000c4  2801              CMP      r0,#1
0000c6  d0fa              BEQ      |L4.190|
;;;130    				/* Clear pending flags (if any) */  
;;;131    				FLASH_ClearFlag(FLASH_FLAG_EOP | FLASH_FLAG_PGERR | FLASH_FLAG_WRPERR);
0000c8  2034              MOVS     r0,#0x34
0000ca  f7fffffe          BL       FLASH_ClearFlag
;;;132    				FLASH_ErasePage(Address);
0000ce  4640              MOV      r0,r8
0000d0  f7fffffe          BL       FLASH_ErasePage
                  |L4.212|
;;;133    				while(FLASH_GetFlagStatus(FLASH_FLAG_BSY)==SET){}
0000d4  2001              MOVS     r0,#1
0000d6  f7fffffe          BL       FLASH_GetFlagStatus
0000da  2801              CMP      r0,#1
0000dc  d0fa              BEQ      |L4.212|
;;;134    				Address = Memory_Offset - Pages;
0000de  eba40009          SUB      r0,r4,r9
;;;135    				Address >>= 2;
0000e2  0881              LSRS     r1,r0,#2
;;;136    				for(Index = 0; Index < Transfer_Length; Index += 4)
0000e4  2000              MOVS     r0,#0
0000e6  e009              B        |L4.252|
                  |L4.232|
;;;137    				{
;;;138    					Page[Address + (Index >> 2)] = Writebuff[Index >> 2];
0000e8  f0200303          BIC      r3,r0,#3
0000ec  f85a2003          LDR      r2,[r10,r3]
0000f0  eb010390          ADD      r3,r1,r0,LSR #2
0000f4  1d00              ADDS     r0,r0,#4
0000f6  f8452023          STR      r2,[r5,r3,LSL #2]
0000fa  b280              UXTH     r0,r0                 ;136
                  |L4.252|
0000fc  42b8              CMP      r0,r7                 ;136
0000fe  d3f3              BCC      |L4.232|
000100  4647              MOV      r7,r8                 ;136
;;;139    				}
;;;140    				Address = FAT_TABLE_ADDR + Pages;
;;;141    				for(Index = 0; Index < FLASH_PAGE_SIZE; Index += 4)
000102  2400              MOVS     r4,#0
                  |L4.260|
;;;142    				{
;;;143    					FLASH_ProgramWord((Address + Index), Page[Index >> 2]);
000104  f0240003          BIC      r0,r4,#3
000108  5829              LDR      r1,[r5,r0]
00010a  e000              B        |L4.270|
                  |L4.268|
00010c  e010              B        |L4.304|
                  |L4.270|
00010e  1938              ADDS     r0,r7,r4
000110  f7fffffe          BL       FLASH_ProgramWord
                  |L4.276|
;;;144    					while(FLASH_GetFlagStatus(FLASH_FLAG_BSY)==SET){}
000114  2001              MOVS     r0,#1
000116  f7fffffe          BL       FLASH_GetFlagStatus
00011a  2801              CMP      r0,#1
00011c  d0fa              BEQ      |L4.276|
00011e  1d24              ADDS     r4,r4,#4
000120  b2a4              UXTH     r4,r4                 ;141
000122  42b4              CMP      r4,r6                 ;141
000124  d3ee              BCC      |L4.260|
;;;145    				}
;;;146    				FLASH_Lock();
000126  f7fffffe          BL       FLASH_Lock
                  |L4.298|
;;;147    			}
;;;148    			return MAL_OK;
00012a  2000              MOVS     r0,#0
                  |L4.300|
;;;149    		}
;;;150    		else return MAL_FAIL;
;;;151    	}
;;;152    	return MAL_FAIL;
;;;153    }
00012c  e8bd9ff0          POP      {r4-r12,pc}
                  |L4.304|
000130  2001              MOVS     r0,#1                 ;152
000132  e7fb              B        |L4.300|
;;;154    
                          ENDP

                  |L4.308|
                          DCD      ||.data||+0x4a
                  |L4.312|
                          DCD      0x08003800
                  |L4.316|
                          DCD      ||.bss||

                          AREA ||.bss||, DATA, NOINIT, ALIGN=2

                  Page
                          %        2048

                          AREA ||.data||, DATA, ALIGN=2

                  Mass_Memory_Size
                          DCD      0x00000000
                  Mass_Block_Size
                          DCD      0x00000000
                  Mass_Block_Count
                          DCD      0x00000000
                  BOOT_TABLE
00000c  eb3c904d          DCB      0xeb,0x3c,0x90,0x4d
000010  5357494e          DCB      0x53,0x57,0x49,0x4e
000014  342e3100          DCB      0x34,0x2e,0x31,0x00
000018  02010100          DCB      0x02,0x01,0x01,0x00
00001c  022000ed          DCB      0x02,0x20,0x00,0xed
000020  01f00300          DCB      0x01,0xf0,0x03,0x00
000024  01000100          DCB      0x01,0x00,0x01,0x00
000028  00000000          DCB      0x00,0x00,0x00,0x00
00002c  00000000          DCB      0x00,0x00,0x00,0x00
000030  00002974          DCB      0x00,0x00,0x29,0x74
000034  19022759          DCB      0x19,0x02,0x27,0x59
000038  554e4545          DCB      0x55,0x4e,0x45,0x45
00003c  43205553          DCB      0x43,0x20,0x55,0x53
000040  42204641          DCB      0x42,0x20,0x46,0x41
000044  54313220          DCB      0x54,0x31,0x32,0x20
000048  2020              DCB      0x20,0x20
                  FATn_TABLE
00004a  0000              DCB      0x00,0x00
00004c  00034000          DCB      0x00,0x03,0x40,0x00
000050  ff0f0000          DCB      0xff,0x0f,0x00,0x00
                          %        1524
000648  0000              DCB      0x00,0x00
                  ROOT_TABLE
00064a  5955              DCB      0x59,0x55
00064c  4e454543          DCB      0x4e,0x45,0x45,0x43
000650  20444556          DCB      0x20,0x44,0x45,0x56
000654  20080000          DCB      0x20,0x08,0x00,0x00
000658  00000000          DCB      0x00,0x00,0x00,0x00
00065c  00000000          DCB      0x00,0x00,0x00,0x00
000660  aea69b47          DCB      0xae,0xa6,0x9b,0x47
000664  00000000          DCB      0x00,0x00,0x00,0x00
000668  0000e5b0          DCB      0x00,0x00,0xe5,0xb0
00066c  65fa5e87          DCB      0x65,0xfa,0x5e,0x87
000670  652c6787          DCB      0x65,0x2c,0x67,0x87
000674  650f00d2          DCB      0x65,0x0f,0x00,0xd2
000678  63682e00          DCB      0x63,0x68,0x2e,0x00
00067c  74007800          DCB      0x74,0x00,0x78,0x00
000680  74000000          DCB      0x74,0x00,0x00,0x00
000684  0000ffff          DCB      0x00,0x00,0xff,0xff
000688  ffffe5c2          DCB      0xff,0xff,0xe5,0xc2
00068c  bda8cec4          DCB      0xbd,0xa8,0xce,0xc4
000690  7e315458          DCB      0x7e,0x31,0x54,0x58
000694  54200000          DCB      0x54,0x20,0x00,0x00
000698  b0a69b47          DCB      0xb0,0xa6,0x9b,0x47
00069c  9b470000          DCB      0x9b,0x47,0x00,0x00
0006a0  b1a69b47          DCB      0xb1,0xa6,0x9b,0x47
0006a4  00000000          DCB      0x00,0x00,0x00,0x00
0006a8  00005245          DCB      0x00,0x00,0x52,0x45
0006ac  41444d45          DCB      0x41,0x44,0x4d,0x45
0006b0  20205458          DCB      0x20,0x20,0x54,0x58
0006b4  54201800          DCB      0x54,0x20,0x18,0x00
0006b8  b0a69b47          DCB      0xb0,0xa6,0x9b,0x47
0006bc  9b470000          DCB      0x9b,0x47,0x00,0x00
0006c0  b5a69b47          DCB      0xb5,0xa6,0x9b,0x47
0006c4  02001405          DCB      0x02,0x00,0x14,0x05
0006c8  00000000          DCB      0x00,0x00,0x00,0x00
                          %        892
000a48  0000              DCB      0x00,0x00
                  FileData
000a4a  5468              DCB      0x54,0x68
000a4c  69732069          DCB      0x69,0x73,0x20,0x69
000a50  73207468          DCB      0x73,0x20,0x74,0x68
000a54  65206669          DCB      0x65,0x20,0x66,0x69
000a58  72737420          DCB      0x72,0x73,0x74,0x20
000a5c  6f662061          DCB      0x6f,0x66,0x20,0x61
000a60  20706169          DCB      0x20,0x70,0x61,0x69
000a64  72206f66          DCB      0x72,0x20,0x6f,0x66
000a68  20706170          DCB      0x20,0x70,0x61,0x70
000a6c  65727320          DCB      0x65,0x72,0x73,0x20
000a70  6f6e2074          DCB      0x6f,0x6e,0x20,0x74
000a74  68652074          DCB      0x68,0x65,0x20,0x74
000a78  68656f72          DCB      0x68,0x65,0x6f,0x72
000a7c  7920616e          DCB      0x79,0x20,0x61,0x6e
000a80  6420696d          DCB      0x64,0x20,0x69,0x6d
000a84  706c656d          DCB      0x70,0x6c,0x65,0x6d
000a88  656e7461          DCB      0x65,0x6e,0x74,0x61
000a8c  74696f6e          DCB      0x74,0x69,0x6f,0x6e
000a90  206f6620          DCB      0x20,0x6f,0x66,0x20
000a94  610d0a64          DCB      0x61,0x0d,0x0a,0x64
000a98  69726563          DCB      0x69,0x72,0x65,0x63
000a9c  74696f6e          DCB      0x74,0x69,0x6f,0x6e
000aa0  2d636f73          DCB      0x2d,0x63,0x6f,0x73
000aa4  696e652d          DCB      0x69,0x6e,0x65,0x2d
000aa8  6d617472          DCB      0x6d,0x61,0x74,0x72
000aac  69782028          DCB      0x69,0x78,0x20,0x28
000ab0  44434d29          DCB      0x44,0x43,0x4d,0x29
000ab4  20626173          DCB      0x20,0x62,0x61,0x73
000ab8  65642069          DCB      0x65,0x64,0x20,0x69
000abc  6e657274          DCB      0x6e,0x65,0x72,0x74
000ac0  69616c20          DCB      0x69,0x61,0x6c,0x20
000ac4  6d656173          DCB      0x6d,0x65,0x61,0x73
000ac8  7572656d          DCB      0x75,0x72,0x65,0x6d
000acc  656e7420          DCB      0x65,0x6e,0x74,0x20
000ad0  756e6974          DCB      0x75,0x6e,0x69,0x74
000ad4  20666f72          DCB      0x20,0x66,0x6f,0x72
000ad8  20617070          DCB      0x20,0x61,0x70,0x70
000adc  6c696361          DCB      0x6c,0x69,0x63,0x61
000ae0  74696f6e          DCB      0x74,0x69,0x6f,0x6e
000ae4  0d0a696e          DCB      0x0d,0x0a,0x69,0x6e
000ae8  206d6f64          DCB      0x20,0x6d,0x6f,0x64
000aec  656c2070          DCB      0x65,0x6c,0x20,0x70
000af0  6c616e65          DCB      0x6c,0x61,0x6e,0x65
000af4  7320616e          DCB      0x73,0x20,0x61,0x6e
000af8  64206865          DCB      0x64,0x20,0x68,0x65
000afc  6c69636f          DCB      0x6c,0x69,0x63,0x6f
000b00  70746572          DCB      0x70,0x74,0x65,0x72
000b04  732e2041          DCB      0x73,0x2e,0x20,0x41
000b08  63747561          DCB      0x63,0x74,0x75,0x61
000b0c  6c6c792c          DCB      0x6c,0x6c,0x79,0x2c
000b10  20617420          DCB      0x20,0x61,0x74,0x20
000b14  74686973          DCB      0x74,0x68,0x69,0x73
000b18  20706f69          DCB      0x20,0x70,0x6f,0x69
000b1c  6e742c20          DCB      0x6e,0x74,0x2c,0x20
000b20  69742069          DCB      0x69,0x74,0x20,0x69
000b24  73207374          DCB      0x73,0x20,0x73,0x74
000b28  696c6c20          DCB      0x69,0x6c,0x6c,0x20
000b2c  61206472          DCB      0x61,0x20,0x64,0x72
000b30  6166742c          DCB      0x61,0x66,0x74,0x2c
000b34  20746865          DCB      0x20,0x74,0x68,0x65
000b38  72650d0a          DCB      0x72,0x65,0x0d,0x0a
000b3c  69732073          DCB      0x69,0x73,0x20,0x73
000b40  74696c6c          DCB      0x74,0x69,0x6c,0x6c
000b44  2061206c          DCB      0x20,0x61,0x20,0x6c
000b48  6f74206d          DCB      0x6f,0x74,0x20,0x6d
000b4c  6f726520          DCB      0x6f,0x72,0x65,0x20
000b50  776f726b          DCB      0x77,0x6f,0x72,0x6b
000b54  20746f20          DCB      0x20,0x74,0x6f,0x20
000b58  62652064          DCB      0x62,0x65,0x20,0x64
000b5c  6f6e652e          DCB      0x6f,0x6e,0x65,0x2e
000b60  20536576          DCB      0x20,0x53,0x65,0x76
000b64  6572616c          DCB      0x65,0x72,0x61,0x6c
000b68  20726576          DCB      0x20,0x72,0x65,0x76
000b6c  69657765          DCB      0x69,0x65,0x77,0x65
000b70  72732c20          DCB      0x72,0x73,0x2c,0x20
000b74  65737065          DCB      0x65,0x73,0x70,0x65
000b78  6369616c          DCB      0x63,0x69,0x61,0x6c
000b7c  6c79204c          DCB      0x6c,0x79,0x20,0x4c
000b80  6f756973          DCB      0x6f,0x75,0x69,0x73
000b84  0d0a4c65          DCB      0x0d,0x0a,0x4c,0x65
000b88  4772616e          DCB      0x47,0x72,0x61,0x6e
000b8c  6420616e          DCB      0x64,0x20,0x61,0x6e
000b90  64205546          DCB      0x64,0x20,0x55,0x46
000b94  4f2d6d61          DCB      0x4f,0x2d,0x6d,0x61
000b98  6e2c2068          DCB      0x6e,0x2c,0x20,0x68
000b9c  61766520          DCB      0x61,0x76,0x65,0x20
000ba0  6d616465          DCB      0x6d,0x61,0x64,0x65
000ba4  20676f6f          DCB      0x20,0x67,0x6f,0x6f
000ba8  64207375          DCB      0x64,0x20,0x73,0x75
000bac  67676573          DCB      0x67,0x67,0x65,0x73
000bb0  74696f6e          DCB      0x74,0x69,0x6f,0x6e
000bb4  73206f6e          DCB      0x73,0x20,0x6f,0x6e
000bb8  20616464          DCB      0x20,0x61,0x64,0x64
000bbc  6974696f          DCB      0x69,0x74,0x69,0x6f
000bc0  6e732061          DCB      0x6e,0x73,0x20,0x61
000bc4  6e640d0a          DCB      0x6e,0x64,0x0d,0x0a
000bc8  72657669          DCB      0x72,0x65,0x76,0x69
000bcc  73696f6e          DCB      0x73,0x69,0x6f,0x6e
000bd0  73207468          DCB      0x73,0x20,0x74,0x68
000bd4  61742077          DCB      0x61,0x74,0x20,0x77
000bd8  65207368          DCB      0x65,0x20,0x73,0x68
000bdc  6f756c64          DCB      0x6f,0x75,0x6c,0x64
000be0  206d616b          DCB      0x20,0x6d,0x61,0x6b
000be4  6520616e          DCB      0x65,0x20,0x61,0x6e
000be8  64207072          DCB      0x64,0x20,0x70,0x72
000bec  65706172          DCB      0x65,0x70,0x61,0x72
000bf0  65642073          DCB      0x65,0x64,0x20,0x73
000bf4  6f6d6520          DCB      0x6f,0x6d,0x65,0x20
000bf8  66696775          DCB      0x66,0x69,0x67,0x75
000bfc  72657320          DCB      0x72,0x65,0x73,0x20
000c00  74686174          DCB      0x74,0x68,0x61,0x74
000c04  20776520          DCB      0x20,0x77,0x65,0x20
000c08  68617665          DCB      0x68,0x61,0x76,0x65
000c0c  206e6f74          DCB      0x20,0x6e,0x6f,0x74
000c10  0d0a696e          DCB      0x0d,0x0a,0x69,0x6e
000c14  636c7564          DCB      0x63,0x6c,0x75,0x64
000c18  65642079          DCB      0x65,0x64,0x20,0x79
000c1c  65742e20          DCB      0x65,0x74,0x2e,0x20
000c20  57652077          DCB      0x57,0x65,0x20,0x77
000c24  696c6c20          DCB      0x69,0x6c,0x6c,0x20
000c28  6576656e          DCB      0x65,0x76,0x65,0x6e
000c2c  7475616c          DCB      0x74,0x75,0x61,0x6c
000c30  6c792069          DCB      0x6c,0x79,0x20,0x69
000c34  6e636f72          DCB      0x6e,0x63,0x6f,0x72
000c38  706f7261          DCB      0x70,0x6f,0x72,0x61
000c3c  74652074          DCB      0x74,0x65,0x20,0x74
000c40  68656972          DCB      0x68,0x65,0x69,0x72
000c44  20737567          DCB      0x20,0x73,0x75,0x67
000c48  67657374          DCB      0x67,0x65,0x73,0x74
000c4c  696f6e73          DCB      0x69,0x6f,0x6e,0x73
000c50  2c206275          DCB      0x2c,0x20,0x62,0x75
000c54  74206974          DCB      0x74,0x20,0x69,0x74
000c58  206d6179          DCB      0x20,0x6d,0x61,0x79
000c5c  2074616b          DCB      0x20,0x74,0x61,0x6b
000c60  650d0a61          DCB      0x65,0x0d,0x0a,0x61
000c64  206c6f6e          DCB      0x20,0x6c,0x6f,0x6e
000c68  67207469          DCB      0x67,0x20,0x74,0x69
000c6c  6d652074          DCB      0x6d,0x65,0x20,0x74
000c70  6f206765          DCB      0x6f,0x20,0x67,0x65
000c74  74207468          DCB      0x74,0x20,0x74,0x68
000c78  6572652e          DCB      0x65,0x72,0x65,0x2e
000c7c  20496e20          DCB      0x20,0x49,0x6e,0x20
000c80  74686520          DCB      0x74,0x68,0x65,0x20
000c84  6d65616e          DCB      0x6d,0x65,0x61,0x6e
000c88  74696d65          DCB      0x74,0x69,0x6d,0x65
000c8c  2c207765          DCB      0x2c,0x20,0x77,0x65
000c90  20746869          DCB      0x20,0x74,0x68,0x69
000c94  6e6b2074          DCB      0x6e,0x6b,0x20,0x74
000c98  68657265          DCB      0x68,0x65,0x72,0x65
000c9c  20697320          DCB      0x20,0x69,0x73,0x20
000ca0  616e2061          DCB      0x61,0x6e,0x20,0x61
000ca4  75646965          DCB      0x75,0x64,0x69,0x65
000ca8  6e636520          DCB      0x6e,0x63,0x65,0x20
000cac  77686f0d          DCB      0x77,0x68,0x6f,0x0d
000cb0  0a63616e          DCB      0x0a,0x63,0x61,0x6e
000cb4  2062656e          DCB      0x20,0x62,0x65,0x6e
000cb8  65666974          DCB      0x65,0x66,0x69,0x74
000cbc  2066726f          DCB      0x20,0x66,0x72,0x6f
000cc0  6d207768          DCB      0x6d,0x20,0x77,0x68
000cc4  61742077          DCB      0x61,0x74,0x20,0x77
000cc8  65206861          DCB      0x65,0x20,0x68,0x61
000ccc  76652073          DCB      0x76,0x65,0x20,0x73
000cd0  6f206661          DCB      0x6f,0x20,0x66,0x61
000cd4  722e0d0a          DCB      0x72,0x2e,0x0d,0x0a
000cd8  54686520          DCB      0x54,0x68,0x65,0x20
000cdc  6d6f7469          DCB      0x6d,0x6f,0x74,0x69
000ce0  76617469          DCB      0x76,0x61,0x74,0x69
000ce4  6f6e2066          DCB      0x6f,0x6e,0x20,0x66
000ce8  6f722044          DCB      0x6f,0x72,0x20,0x44
000cec  434d2077          DCB      0x43,0x4d,0x20,0x77
000cf0  61732074          DCB      0x61,0x73,0x20,0x74
000cf4  6f207461          DCB      0x6f,0x20,0x74,0x61
000cf8  6b652074          DCB      0x6b,0x65,0x20,0x74
000cfc  6865206e          DCB      0x68,0x65,0x20,0x6e
000d00  65787420          DCB      0x65,0x78,0x74,0x20
000d04  73746570          DCB      0x73,0x74,0x65,0x70
000d08  20696e20          DCB      0x20,0x69,0x6e,0x20
000d0c  73746162          DCB      0x73,0x74,0x61,0x62
000d10  696c697a          DCB      0x69,0x6c,0x69,0x7a
000d14  6174696f          DCB      0x61,0x74,0x69,0x6f
000d18  6e20616e          DCB      0x6e,0x20,0x61,0x6e
000d1c  640d0a63          DCB      0x64,0x0d,0x0a,0x63
000d20  6f6e7472          DCB      0x6f,0x6e,0x74,0x72
000d24  6f6c2066          DCB      0x6f,0x6c,0x20,0x66
000d28  756e6374          DCB      0x75,0x6e,0x63,0x74
000d2c  696f6e73          DCB      0x69,0x6f,0x6e,0x73
000d30  2066726f          DCB      0x20,0x66,0x72,0x6f
000d34  6d20616e          DCB      0x6d,0x20,0x61,0x6e
000d38  20696e68          DCB      0x20,0x69,0x6e,0x68
000d3c  6572656e          DCB      0x65,0x72,0x65,0x6e
000d40  746c7920          DCB      0x74,0x6c,0x79,0x20
000d44  73746162          DCB      0x73,0x74,0x61,0x62
000d48  6c652061          DCB      0x6c,0x65,0x20,0x61
000d4c  69726372          DCB      0x69,0x72,0x63,0x72
000d50  61667420          DCB      0x61,0x66,0x74,0x20
000d54  77697468          DCB      0x77,0x69,0x74,0x68
000d58  20656c65          DCB      0x20,0x65,0x6c,0x65
000d5c  7661746f          DCB      0x76,0x61,0x74,0x6f
000d60  7220616e          DCB      0x72,0x20,0x61,0x6e
000d64  64207275          DCB      0x64,0x20,0x72,0x75
000d68  64646572          DCB      0x64,0x64,0x65,0x72
000d6c  0d0a636f          DCB      0x0d,0x0a,0x63,0x6f
000d70  6e74726f          DCB      0x6e,0x74,0x72,0x6f
000d74  6c2c2074          DCB      0x6c,0x2c,0x20,0x74
000d78  6f20616e          DCB      0x6f,0x20,0x61,0x6e
000d7c  20616572          DCB      0x20,0x61,0x65,0x72
000d80  6f626174          DCB      0x6f,0x62,0x61,0x74
000d84  69632061          DCB      0x69,0x63,0x20,0x61
000d88  69726372          DCB      0x69,0x72,0x63,0x72
000d8c  61667420          DCB      0x61,0x66,0x74,0x20
000d90  77697468          DCB      0x77,0x69,0x74,0x68
000d94  2061696c          DCB      0x20,0x61,0x69,0x6c
000d98  65726f6e          DCB      0x65,0x72,0x6f,0x6e
000d9c  7320616e          DCB      0x73,0x20,0x61,0x6e
000da0  6420656c          DCB      0x64,0x20,0x65,0x6c
000da4  65766174          DCB      0x65,0x76,0x61,0x74
000da8  6f722e20          DCB      0x6f,0x72,0x2e,0x20
000dac  4f6e6520          DCB      0x4f,0x6e,0x65,0x20
000db0  6f662074          DCB      0x6f,0x66,0x20,0x74
000db4  68652061          DCB      0x68,0x65,0x20,0x61
000db8  7574686f          DCB      0x75,0x74,0x68,0x6f
000dbc  72730d0a          DCB      0x72,0x73,0x0d,0x0a
000dc0  28507265          DCB      0x28,0x50,0x72,0x65
000dc4  6d65726c          DCB      0x6d,0x65,0x72,0x6c
000dc8  616e6929          DCB      0x61,0x6e,0x69,0x29
000dcc  20627569          DCB      0x20,0x62,0x75,0x69
000dd0  6c742061          DCB      0x6c,0x74,0x20,0x61
000dd4  2074776f          DCB      0x20,0x74,0x77,0x6f
000dd8  20617865          DCB      0x20,0x61,0x78,0x65
000ddc  7320626f          DCB      0x73,0x20,0x62,0x6f
000de0  61726420          DCB      0x61,0x72,0x64,0x20
000de4  73657665          DCB      0x73,0x65,0x76,0x65
000de8  72616c20          DCB      0x72,0x61,0x6c,0x20
000dec  79656172          DCB      0x79,0x65,0x61,0x72
000df0  73206167          DCB      0x73,0x20,0x61,0x67
000df4  6f2c2061          DCB      0x6f,0x2c,0x20,0x61
000df8  6e642064          DCB      0x6e,0x64,0x20,0x64
000dfc  6576656c          DCB      0x65,0x76,0x65,0x6c
000e00  6f706564          DCB      0x6f,0x70,0x65,0x64
000e04  0d0a7275          DCB      0x0d,0x0a,0x72,0x75
000e08  64696d65          DCB      0x64,0x69,0x6d,0x65
000e0c  6e746172          DCB      0x6e,0x74,0x61,0x72
000e10  79206669          DCB      0x79,0x20,0x66,0x69
000e14  726d7761          DCB      0x72,0x6d,0x77,0x61
000e18  72652074          DCB      0x72,0x65,0x20,0x74
000e1c  6f207072          DCB      0x6f,0x20,0x70,0x72
000e20  6f766964          DCB      0x6f,0x76,0x69,0x64
000e24  65207374          DCB      0x65,0x20,0x73,0x74
000e28  6162696c          DCB      0x61,0x62,0x69,0x6c
000e2c  697a6174          DCB      0x69,0x7a,0x61,0x74
000e30  696f6e20          DCB      0x69,0x6f,0x6e,0x20
000e34  616e6420          DCB      0x61,0x6e,0x64,0x20
000e38  72657475          DCB      0x72,0x65,0x74,0x75
000e3c  726e2d74          DCB      0x72,0x6e,0x2d,0x74
000e40  6f2d6c61          DCB      0x6f,0x2d,0x6c,0x61
000e44  756e6368          DCB      0x75,0x6e,0x63,0x68
000e48  20285254          DCB      0x20,0x28,0x52,0x54
000e4c  4c290d0a          DCB      0x4c,0x29,0x0d,0x0a
000e50  66756e63          DCB      0x66,0x75,0x6e,0x63
000e54  74696f6e          DCB      0x74,0x69,0x6f,0x6e
000e58  7320666f          DCB      0x73,0x20,0x66,0x6f
000e5c  72206120          DCB      0x72,0x20,0x61,0x20
000e60  47656e74          DCB      0x47,0x65,0x6e,0x74
000e64  6c65204c          DCB      0x6c,0x65,0x20,0x4c
000e68  61647920          DCB      0x61,0x64,0x79,0x20
000e6c  7361696c          DCB      0x73,0x61,0x69,0x6c
000e70  706c616e          DCB      0x70,0x6c,0x61,0x6e
000e74  652e2054          DCB      0x65,0x2e,0x20,0x54
000e78  68652066          DCB      0x68,0x65,0x20,0x66
000e7c  69726d77          DCB      0x69,0x72,0x6d,0x77
000e80  61726520          DCB      0x61,0x72,0x65,0x20
000e84  776f726b          DCB      0x77,0x6f,0x72,0x6b
000e88  65642077          DCB      0x65,0x64,0x20,0x77
000e8c  656c6c20          DCB      0x65,0x6c,0x6c,0x20
000e90  656e6f75          DCB      0x65,0x6e,0x6f,0x75
000e94  67682c20          DCB      0x67,0x68,0x2c,0x20
000e98  616e640d          DCB      0x61,0x6e,0x64,0x0d
000e9c  0a746865          DCB      0x0a,0x74,0x68,0x65
000ea0  20617574          DCB      0x20,0x61,0x75,0x74
000ea4  686f7220          DCB      0x68,0x6f,0x72,0x20
000ea8  63616d65          DCB      0x63,0x61,0x6d,0x65
000eac  20746f20          DCB      0x20,0x74,0x6f,0x20
000eb0  72656c79          DCB      0x72,0x65,0x6c,0x79
000eb4  206f6e20          DCB      0x20,0x6f,0x6e,0x20
000eb8  74686520          DCB      0x74,0x68,0x65,0x20
000ebc  52544c20          DCB      0x52,0x54,0x4c,0x20
000ec0  66656174          DCB      0x66,0x65,0x61,0x74
000ec4  7572652c          DCB      0x75,0x72,0x65,0x2c
000ec8  20627574          DCB      0x20,0x62,0x75,0x74
000ecc  20697420          DCB      0x20,0x69,0x74,0x20
000ed0  6e657665          DCB      0x6e,0x65,0x76,0x65
000ed4  72207365          DCB      0x72,0x20,0x73,0x65
000ed8  656d6564          DCB      0x65,0x6d,0x65,0x64
000edc  20746f20          DCB      0x20,0x74,0x6f,0x20
000ee0  776f726b          DCB      0x77,0x6f,0x72,0x6b
000ee4  2061730d          DCB      0x20,0x61,0x73,0x0d
000ee8  0a77656c          DCB      0x0a,0x77,0x65,0x6c
000eec  6c206173          DCB      0x6c,0x20,0x61,0x73
000ef0  20746865          DCB      0x20,0x74,0x68,0x65
000ef4  20617574          DCB      0x20,0x61,0x75,0x74
000ef8  686f7220          DCB      0x68,0x6f,0x72,0x20
000efc  776f756c          DCB      0x77,0x6f,0x75,0x6c
000f00  64206c69          DCB      0x64,0x20,0x6c,0x69
000f04  6b652e20          DCB      0x6b,0x65,0x2e,0x20
000f08  496e2070          DCB      0x49,0x6e,0x20,0x70
000f0c  61727469          DCB      0x61,0x72,0x74,0x69
000f10  63756c61          DCB      0x63,0x75,0x6c,0x61
000f14  722c2073          DCB      0x72,0x2c,0x20,0x73
000f18  61746973          DCB      0x61,0x74,0x69,0x73
000f1c  66616374          DCB      0x66,0x61,0x63,0x74
000f20  6f727920          DCB      0x6f,0x72,0x79,0x20
000f24  736f6c75          DCB      0x73,0x6f,0x6c,0x75
000f28  74696f6e          DCB      0x74,0x69,0x6f,0x6e
000f2c  7320746f          DCB      0x73,0x20,0x74,0x6f
000f30  20746865          DCB      0x20,0x74,0x68,0x65
000f34  0d0a666f          DCB      0x0d,0x0a,0x66,0x6f
000f38  6c6c6f77          DCB      0x6c,0x6c,0x6f,0x77
000f3c  696e6720          DCB      0x69,0x6e,0x67,0x20
000f40  74776f20          DCB      0x74,0x77,0x6f,0x20
000f44  69737375          DCB      0x69,0x73,0x73,0x75
000f48  65732077          DCB      0x65,0x73,0x20,0x77
000f4c  65726520          DCB      0x65,0x72,0x65,0x20
000f50  6e657665          DCB      0x6e,0x65,0x76,0x65
000f54  7220666f          DCB      0x72,0x20,0x66,0x6f
000f58  756e643a          DCB      0x75,0x6e,0x64,0x3a
000f5c  2020              DCB      0x20,0x20

;*** Start embedded assembler ***

#line 1 "..\\src\\mass_mal.c"
	AREA ||.rev16_text||, CODE
	THUMB
	EXPORT |__asm___10_mass_mal_c_Page____REV16|
#line 138 "D:\\MDK\\install\\ARM\\PACK\\ARM\\CMSIS\\4.3.0\\CMSIS\\Include\\core_cmInstr.h"
|__asm___10_mass_mal_c_Page____REV16| PROC
#line 139

 rev16 r0, r0
 bx lr
	ENDP
	AREA ||.revsh_text||, CODE
	THUMB
	EXPORT |__asm___10_mass_mal_c_Page____REVSH|
#line 153
|__asm___10_mass_mal_c_Page____REVSH| PROC
#line 154

 revsh r0, r0
 bx lr
	ENDP
	AREA ||.rrx_text||, CODE
	THUMB
	EXPORT |__asm___10_mass_mal_c_Page____RRX|
#line 328
|__asm___10_mass_mal_c_Page____RRX| PROC
#line 329

 rrx r0, r0
 bx lr
	ENDP

;*** End   embedded assembler ***
